; Function Attrs: mustprogress uwtable
define noundef nonnull align 8 dereferenceable(224) ptr @_ZN6icu_7513OlsonTimeZoneaSERKS0_(ptr noundef nonnull returned align 8 dereferenceable(224) %this, ptr noundef nonnull readonly align 8 dereferenceable(224) %other) local_unnamed_addr #2 align 2 personality ptr @__gxx_personality_v0 {
entry:
  %cmp = icmp eq ptr %this, %other
  br i1 %cmp, label %return, label %if.end

if.end:                                           ; preds = %entry
  %canonicalID = getelementptr inbounds i8, ptr %other, i64 152
  %0 = load ptr, ptr %canonicalID, align 8
  %canonicalID2 = getelementptr inbounds i8, ptr %this, i64 152
  store ptr %0, ptr %canonicalID2, align 8
  %transitionTimesPre32 = getelementptr inbounds i8, ptr %other, i64 80
  %1 = load ptr, ptr %transitionTimesPre32, align 8
  %transitionTimesPre323 = getelementptr inbounds i8, ptr %this, i64 80
  store ptr %1, ptr %transitionTimesPre323, align 8
  %transitionTimes32 = getelementptr inbounds i8, ptr %other, i64 88
  %2 = load ptr, ptr %transitionTimes32, align 8
  %transitionTimes324 = getelementptr inbounds i8, ptr %this, i64 88
  store ptr %2, ptr %transitionTimes324, align 8
  %transitionTimesPost32 = getelementptr inbounds i8, ptr %other, i64 96
  %3 = load ptr, ptr %transitionTimesPost32, align 8
  %transitionTimesPost325 = getelementptr inbounds i8, ptr %this, i64 96
  store ptr %3, ptr %transitionTimesPost325, align 8
  %transitionCountPre32 = getelementptr inbounds i8, ptr %other, i64 72
  %4 = load i16, ptr %transitionCountPre32, align 8
  %transitionCountPre326 = getelementptr inbounds i8, ptr %this, i64 72
  store i16 %4, ptr %transitionCountPre326, align 8
  %transitionCount32 = getelementptr inbounds i8, ptr %other, i64 74
  %5 = load i16, ptr %transitionCount32, align 2
  %transitionCount327 = getelementptr inbounds i8, ptr %this, i64 74
  store i16 %5, ptr %transitionCount327, align 2
  %transitionCountPost32 = getelementptr inbounds i8, ptr %other, i64 76
  %6 = load i16, ptr %transitionCountPost32, align 4
  %transitionCountPost328 = getelementptr inbounds i8, ptr %this, i64 76
  store i16 %6, ptr %transitionCountPost328, align 4
  %typeCount = getelementptr inbounds i8, ptr %other, i64 104
  %7 = load i16, ptr %typeCount, align 8
  %typeCount9 = getelementptr inbounds i8, ptr %this, i64 104
  store i16 %7, ptr %typeCount9, align 8
  %typeOffsets = getelementptr inbounds i8, ptr %other, i64 112
  %8 = load ptr, ptr %typeOffsets, align 8
  %typeOffsets10 = getelementptr inbounds i8, ptr %this, i64 112
  store ptr %8, ptr %typeOffsets10, align 8
  %typeMapData = getelementptr inbounds i8, ptr %other, i64 120
  %9 = load ptr, ptr %typeMapData, align 8
  %typeMapData11 = getelementptr inbounds i8, ptr %this, i64 120
  store ptr %9, ptr %typeMapData11, align 8
  %finalZone = getelementptr inbounds i8, ptr %this, i64 128
  %10 = load ptr, ptr %finalZone, align 8
  %isnull = icmp eq ptr %10, null
  br i1 %isnull, label %delete.end, label %delete.notnull

delete.notnull:                                   ; preds = %if.end
  %vtable = load ptr, ptr %10, align 8
  %vfn = getelementptr inbounds i8, ptr %vtable, i64 8
  %11 = load ptr, ptr %vfn, align 8
  tail call void %11(ptr noundef nonnull align 8 dereferenceable(160) %10) #16
  br label %delete.end

delete.end:                                       ; preds = %delete.notnull, %if.end
  %finalZone12 = getelementptr inbounds i8, ptr %other, i64 128
  %12 = load ptr, ptr %finalZone12, align 8
  %cmp13.not = icmp eq ptr %12, null
  br i1 %cmp13.not, label %cond.end, label %cond.true

cond.true:                                        ; preds = %delete.end
  %vtable15 = load ptr, ptr %12, align 8
  %vfn16 = getelementptr inbounds i8, ptr %vtable15, i64 96
  %13 = load ptr, ptr %vfn16, align 8
  %call = tail call noundef ptr %13(ptr noundef nonnull align 8 dereferenceable(160) %12)
  br label %cond.end

cond.end:                                         ; preds = %delete.end, %cond.true
  %cond = phi ptr [ %call, %cond.true ], [ null, %delete.end ]
  store ptr %cond, ptr %finalZone, align 8
  %finalStartYear = getelementptr inbounds i8, ptr %other, i64 144
  %14 = load i32, ptr %finalStartYear, align 8
  %finalStartYear18 = getelementptr inbounds i8, ptr %this, i64 144
  store i32 %14, ptr %finalStartYear18, align 8
  %finalStartMillis = getelementptr inbounds i8, ptr %other, i64 136
  %15 = load double, ptr %finalStartMillis, align 8
  %finalStartMillis19 = getelementptr inbounds i8, ptr %this, i64 136
  store double %15, ptr %finalStartMillis19, align 8
  %initialRule.i = getelementptr inbounds i8, ptr %this, i64 160
  %firstFinalTZTransition.i = getelementptr inbounds i8, ptr %this, i64 184
  %finalZoneWithStartYear.i = getelementptr inbounds i8, ptr %this, i64 208
  store ptr null, ptr %finalZoneWithStartYear.i, align 8
  %transitionRulesInitOnce.i = getelementptr inbounds i8, ptr %this, i64 216
  tail call void @llvm.memset.p0.i64(ptr noundef nonnull align 8 dereferenceable(18) %initialRule.i, i8 0, i64 18, i1 false)
  tail call void @llvm.memset.p0.i64(ptr noundef nonnull align 8 dereferenceable(18) %firstFinalTZTransition.i, i8 0, i64 18, i1 false)
  store atomic i32 0, ptr %transitionRulesInitOnce.i seq_cst, align 8
  br label %return

return:                                           ; preds = %entry, %cond.end
  ret ptr %this
}